; Function Attrs: mustprogress uwtable
define internal void @"_ZNSt17_Function_handlerIF7svectorIN3sat7literalEjEvEZN3smt13theory_recfun17assert_body_axiomERN6recfun14body_expansionEE3$_0E9_M_invokeERKSt9_Any_data"(ptr noalias nocapture writeonly sret(%class.svector.233) align 8 %agg.result, ptr nocapture noundef nonnull readonly align 8 dereferenceable(16) %__functor) #3 align 2 personality ptr @__gxx_personality_v0 {
entry:
  %call.val = load ptr, ptr %__functor, align 8
  tail call void @llvm.experimental.noalias.scope.decl(metadata !60)
  tail call void @llvm.experimental.noalias.scope.decl(metadata !63)
  tail call void @llvm.experimental.noalias.scope.decl(metadata !66)
  store ptr null, ptr %agg.result, align 8, !alias.scope !69
  %0 = load ptr, ptr %call.val, align 8, !noalias !69
  %tobool.not.i.i.i.i.i = icmp eq ptr %0, null
  br i1 %tobool.not.i.i.i.i.i, label %"_ZSt10__invoke_rI7svectorIN3sat7literalEjERZN3smt13theory_recfun17assert_body_axiomERN6recfun14body_expansionEE3$_0JEENSt9enable_ifIX16is_invocable_r_vIT_T0_DpT1_EESC_E4typeEOSD_DpOSE_.exit", label %_ZNK6vectorIN3sat7literalELb0EjE8capacityEv.exit.i.i.i.i.i.i

_ZNK6vectorIN3sat7literalELb0EjE8capacityEv.exit.i.i.i.i.i.i: ; preds = %entry
  %arrayidx.i11.i.i.i.i.i.i = getelementptr inbounds i8, ptr %0, i64 -8
  %1 = load <2 x i32>, ptr %arrayidx.i11.i.i.i.i.i.i, align 4, !noalias !69
  %2 = extractelement <2 x i32> %1, i64 0
  %conv.i.i.i.i.i.i = zext i32 %2 to i64
  %mul.i.i.i.i.i.i = shl nuw nsw i64 %conv.i.i.i.i.i.i, 2
  %add.i.i.i.i.i.i = add nuw nsw i64 %mul.i.i.i.i.i.i, 8
  %call3.i.i.i.i.i.i = tail call noalias noundef ptr @_ZN6memory8allocateEm(i64 noundef %add.i.i.i.i.i.i), !noalias !69
  store <2 x i32> %1, ptr %call3.i.i.i.i.i.i, align 4, !noalias !69
  %incdec.ptr4.i.i.i.i.i.i = getelementptr i8, ptr %call3.i.i.i.i.i.i, i64 8
  store ptr %incdec.ptr4.i.i.i.i.i.i, ptr %agg.result, align 8, !alias.scope !69
  %3 = load ptr, ptr %call.val, align 8, !noalias !69
  %cmp.i.i.i.i.i.i.i.i = icmp eq ptr %3, null
  br i1 %cmp.i.i.i.i.i.i.i.i, label %"_ZSt10__invoke_rI7svectorIN3sat7literalEjERZN3smt13theory_recfun17assert_body_axiomERN6recfun14body_expansionEE3$_0JEENSt9enable_ifIX16is_invocable_r_vIT_T0_DpT1_EESC_E4typeEOSD_DpOSE_.exit", label %_ZNK6vectorIN3sat7literalELb0EjE3endEv.exit.i.i.i.i.i.i

_ZNK6vectorIN3sat7literalELb0EjE3endEv.exit.i.i.i.i.i.i: ; preds = %_ZNK6vectorIN3sat7literalELb0EjE8capacityEv.exit.i.i.i.i.i.i
  %arrayidx.i.i.i.i.i.i.i.i = getelementptr inbounds i8, ptr %3, i64 -4
  %4 = load i32, ptr %arrayidx.i.i.i.i.i.i.i.i, align 4, !noalias !69
  %5 = zext i32 %4 to i64
  %add.ptr.i.i.i.i.i.i.i = getelementptr inbounds %"class.sat::literal", ptr %3, i64 %5
  %cmp.not5.i.i.i.i.i.i.i.i.i = icmp eq i32 %4, 0
  br i1 %cmp.not5.i.i.i.i.i.i.i.i.i, label %"_ZSt10__invoke_rI7svectorIN3sat7literalEjERZN3smt13theory_recfun17assert_body_axiomERN6recfun14body_expansionEE3$_0JEENSt9enable_ifIX16is_invocable_r_vIT_T0_DpT1_EESC_E4typeEOSD_DpOSE_.exit", label %for.body.i.i.i.i.i.i.i.i.i

for.body.i.i.i.i.i.i.i.i.i:                       ; preds = %_ZNK6vectorIN3sat7literalELb0EjE3endEv.exit.i.i.i.i.i.i, %for.body.i.i.i.i.i.i.i.i.i
  %__cur.07.i.i.i.i.i.i.i.i.i = phi ptr [ %incdec.ptr1.i.i.i.i.i.i.i.i.i, %for.body.i.i.i.i.i.i.i.i.i ], [ %incdec.ptr4.i.i.i.i.i.i, %_ZNK6vectorIN3sat7literalELb0EjE3endEv.exit.i.i.i.i.i.i ]
  %__first.addr.06.i.i.i.i.i.i.i.i.i = phi ptr [ %incdec.ptr.i.i.i.i.i.i.i.i.i, %for.body.i.i.i.i.i.i.i.i.i ], [ %3, %_ZNK6vectorIN3sat7literalELb0EjE3endEv.exit.i.i.i.i.i.i ]
  %6 = load i32, ptr %__first.addr.06.i.i.i.i.i.i.i.i.i, align 4, !noalias !69
  store i32 %6, ptr %__cur.07.i.i.i.i.i.i.i.i.i, align 4, !noalias !69
  %incdec.ptr.i.i.i.i.i.i.i.i.i = getelementptr inbounds i8, ptr %__first.addr.06.i.i.i.i.i.i.i.i.i, i64 4
  %incdec.ptr1.i.i.i.i.i.i.i.i.i = getelementptr inbounds i8, ptr %__cur.07.i.i.i.i.i.i.i.i.i, i64 4
  %cmp.not.i.i.i.i.i.i.i.i.i = icmp eq ptr %incdec.ptr.i.i.i.i.i.i.i.i.i, %add.ptr.i.i.i.i.i.i.i
  br i1 %cmp.not.i.i.i.i.i.i.i.i.i, label %"_ZSt10__invoke_rI7svectorIN3sat7literalEjERZN3smt13theory_recfun17assert_body_axiomERN6recfun14body_expansionEE3$_0JEENSt9enable_ifIX16is_invocable_r_vIT_T0_DpT1_EESC_E4typeEOSD_DpOSE_.exit", label %for.body.i.i.i.i.i.i.i.i.i, !llvm.loop !36

"_ZSt10__invoke_rI7svectorIN3sat7literalEjERZN3smt13theory_recfun17assert_body_axiomERN6recfun14body_expansionEE3$_0JEENSt9enable_ifIX16is_invocable_r_vIT_T0_DpT1_EESC_E4typeEOSD_DpOSE_.exit": ; preds = %for.body.i.i.i.i.i.i.i.i.i, %entry, %_ZNK6vectorIN3sat7literalELb0EjE8capacityEv.exit.i.i.i.i.i.i, %_ZNK6vectorIN3sat7literalELb0EjE3endEv.exit.i.i.i.i.i.i
  ret void
}